Certificate:
    Data:
        Version: 1 (0x0)
        Serial Number: 1048577 (0x100001)
    Signature Algorithm: md5WithRSAEncryption
        Issuer: O=University of Toronto, OU=ECE568/emailAddress=ece568ca@ecf.utoronto.ca, L=Toronto, ST=Ontario, C=CA, CN=ECE568 Certificate Authority
        Validity
            Not Before: Feb 27 05:53:08 2015 GMT
            Not After : Feb 27 05:53:08 2016 GMT
        Subject: C=CA, ST=Ontario, O=University of Toronto, OU=ECE658, CN=Alice's Client
        Subject Public Key Info:
            Public Key Algorithm: rsaEncryption
                Public-Key: (4096 bit)
                Modulus:
                    00:ab:08:e9:7a:e7:08:24:9a:41:05:8b:23:74:fd:
                    a6:40:40:10:2b:88:cd:76:83:39:57:cc:f1:9d:ef:
                    14:11:5c:03:17:88:b7:0f:d5:5c:12:2e:ed:97:63:
                    05:02:97:8f:53:4d:19:a9:09:a5:02:cb:0f:fc:c7:
                    31:f8:55:69:7a:9b:05:18:8a:38:1d:4c:60:fa:4d:
                    2c:9c:88:cc:4d:8b:cb:17:c0:ea:c6:bd:bc:8d:83:
                    e6:5a:4f:09:ba:c1:a6:30:50:f2:1c:35:5c:30:43:
                    3a:bd:32:70:14:40:b7:47:43:6b:75:6b:b1:4e:1f:
                    16:89:e8:02:4a:70:dd:7b:1c:0e:9c:98:e0:25:0e:
                    61:96:ac:e7:e4:18:d0:21:30:46:ca:a1:f1:13:9a:
                    fc:5d:70:56:9d:7f:b2:11:dd:7b:ff:26:54:57:c6:
                    19:52:aa:46:2a:cd:b1:37:33:67:7e:99:15:b7:57:
                    87:09:68:4d:f2:aa:c0:12:05:24:9b:eb:4d:25:a7:
                    af:93:e6:5a:d1:db:81:e3:e0:21:8d:1a:46:39:ec:
                    f5:8b:18:e7:57:4f:bb:1f:df:1b:a6:a0:1c:98:97:
                    db:f0:36:da:f2:0c:fe:4f:b5:9d:96:e7:26:cf:6a:
                    35:17:98:cf:52:ef:17:e2:6f:36:2a:82:cf:7d:ce:
                    02:ea:81:41:e4:87:a6:f2:fb:39:db:31:30:92:24:
                    7c:8e:76:d5:82:eb:1d:9b:7e:a2:31:f8:8b:c1:9c:
                    9c:a3:77:32:be:e5:0b:17:0b:95:a9:c6:00:49:ef:
                    7a:4b:24:4a:ca:7c:88:71:cc:07:87:cf:0d:58:fc:
                    d9:18:83:e7:a5:a9:ce:9c:20:d4:e3:d6:95:79:32:
                    2d:3a:bc:24:cb:13:1c:01:dc:ad:56:83:ad:8e:68:
                    58:d3:e1:50:5e:19:77:d7:5f:ac:32:95:63:c2:61:
                    a8:77:19:c9:78:69:1f:1c:20:42:3e:d0:01:a3:7e:
                    f0:b1:c4:1a:0e:48:66:c3:99:eb:2f:64:1b:8d:7f:
                    86:34:97:a7:b2:b6:1b:3e:28:3e:b0:d8:82:b5:1e:
                    16:5c:ae:97:c8:0b:d1:25:d7:4f:61:8c:07:f9:d4:
                    39:d0:11:8d:00:7d:c4:ce:a0:80:db:0e:62:01:11:
                    ac:76:bc:0c:d1:8e:ad:fe:55:53:2e:47:83:bd:29:
                    e5:c9:d2:3e:68:ae:dc:10:65:ea:d7:92:2a:fd:64:
                    f8:fa:fb:8d:8b:71:df:b3:0c:14:fc:d0:c7:6c:40:
                    68:83:14:55:13:b7:9c:5a:b3:28:dc:1e:07:5d:9e:
                    16:5f:eb:b3:d9:75:43:b8:1b:db:56:9d:a5:02:d4:
                    f4:8f:17
                Exponent: 65537 (0x10001)
    Signature Algorithm: md5WithRSAEncryption
         a0:0f:f4:e4:a0:af:08:d6:80:a4:b0:51:9d:dd:c8:3c:d4:07:
         58:d6:9f:d1:3e:96:3e:2c:e2:a2:a9:10:e7:8c:0c:59:c6:be:
         58:52:dc:21:ed:a1:3a:9a:0c:45:9d:35:6e:4d:ba:f2:a9:56:
         4a:92:d3:a4:42:aa:7c:e6:1a:54:31:5a:d7:0a:8e:82:00:13:
         12:5a:c6:68:79:09:f3:f4:e1:e5:9f:28:dc:76:bc:a1:c4:86:
         97:42:56:d1:e3:b8:60:0f:4e:cb:93:43:33:42:9d:fd:67:a9:
         e1:da:22:ec:63:f7:0d:ca:8a:f4:dc:88:56:56:61:65:d3:5b:
         dd:a1:e9:ff:c5:58:ec:77:13:af:0c:c8:b9:5e:c1:ab:32:34:
         c8:d1:22:3c:24:be:7a:c6:5c:48:a5:da:9f:8c:35:08:0e:61:
         cf:04:43:f4:2c:a4:7f:d3:91:18:30:17:39:3e:de:9f:56:69:
         30:d7:63:c7:1e:5c:4c:0f:1e:06:84:b8:d9:bc:65:0e:6e:23:
         cc:a6:d8:5d:91:5f:0a:84:14:c7:79:d4:6f:1a:80:ac:d2:3b:
         78:8b:f6:6d:e2:5c:61:af:1d:41:2c:38:0e:d1:3e:5e:39:b4:
         38:39:66:59:78:77:a9:aa:fe:ca:5b:a3:20:cc:c2:91:c9:83:
         7c:88:6c:f4:44:92:c7:ff:d2:06:d8:11:93:9d:eb:1a:c5:9e:
         ee:8e:22:bc:7e:63:49:59:b7:c2:a8:46:62:71:86:fb:b1:63:
         93:d6:08:cc:52:5c:41:0e:40:35:b9:92:90:5c:8e:4a:4a:68:
         f8:dc:c8:33:46:4d:fd:5f:9b:ac:64:59:55:0b:13:57:e1:c2:
         db:92:0c:e8:90:ab:bd:83:00:34:6e:99:35:f4:a2:4c:95:4c:
         87:f2:c5:d2:fa:d9:9f:c1:2f:77:f6:48:a0:a2:3f:ed:4b:e8:
         68:08:40:67:89:60:b9:13:12:d9:b7:e9:bf:0b:a4:64:b1:f5:
         b6:d4:ca:34:8e:3b:b3:85:59:bd:21:e5:62:9b:65:84:f5:71:
         6f:e2:4b:92:46:f5:72:46:48:c6:5f:85:46:9c:68:ed:61:a1:
         77:23:99:9f:a8:d7:4a:11:e7:0c:3b:34:2f:ee:63:72:5f:33:
         c2:f3:17:08:53:af:2d:a1:75:5a:da:ec:22:31:24:c2:61:e8:
         96:1f:11:56:4e:6f:57:78:7d:11:83:23:58:48:59:40:ac:d4:
         86:e9:c4:aa:d9:ba:b3:8f:76:26:26:fa:f8:1f:37:59:e1:30:
         19:15:d7:db:da:66:1f:7b:06:26:7f:17:b4:f0:20:3c:0d:fa:
         be:a4:a9:7d:d7:33:ef:48
-----BEGIN CERTIFICATE-----
MIIFkjCCA3oCAxAAATANBgkqhkiG9w0BAQQFADCBsjEeMBwGA1UEChMVVW5pdmVy
c2l0eSBvZiBUb3JvbnRvMQ8wDQYDVQQLEwZFQ0U1NjgxJzAlBgkqhkiG9w0BCQEW
GGVjZTU2OGNhQGVjZi51dG9yb250by5jYTEQMA4GA1UEBxMHVG9yb250bzEQMA4G
A1UECBMHT250YXJpbzELMAkGA1UEBhMCQ0ExJTAjBgNVBAMTHEVDRTU2OCBDZXJ0
aWZpY2F0ZSBBdXRob3JpdHkwHhcNMTUwMjI3MDU1MzA4WhcNMTYwMjI3MDU1MzA4
WjBpMQswCQYDVQQGEwJDQTEQMA4GA1UECBMHT250YXJpbzEeMBwGA1UEChMVVW5p
dmVyc2l0eSBvZiBUb3JvbnRvMQ8wDQYDVQQLEwZFQ0U2NTgxFzAVBgNVBAMTDkFs
aWNlJ3MgQ2xpZW50MIICIjANBgkqhkiG9w0BAQEFAAOCAg8AMIICCgKCAgEAqwjp
eucIJJpBBYsjdP2mQEAQK4jNdoM5V8zxne8UEVwDF4i3D9VcEi7tl2MFApePU00Z
qQmlAssP/Mcx+FVpepsFGIo4HUxg+k0snIjMTYvLF8Dqxr28jYPmWk8JusGmMFDy
HDVcMEM6vTJwFEC3R0NrdWuxTh8WiegCSnDdexwOnJjgJQ5hlqzn5BjQITBGyqHx
E5r8XXBWnX+yEd17/yZUV8YZUqpGKs2xNzNnfpkVt1eHCWhN8qrAEgUkm+tNJaev
k+Za0duB4+AhjRpGOez1ixjnV0+7H98bpqAcmJfb8Dba8gz+T7Wdlucmz2o1F5jP
Uu8X4m82KoLPfc4C6oFB5Iem8vs52zEwkiR8jnbVgusdm36iMfiLwZyco3cyvuUL
FwuVqcYASe96SyRKynyIccwHh88NWPzZGIPnpanOnCDU49aVeTItOrwkyxMcAdyt
VoOtjmhY0+FQXhl311+sMpVjwmGodxnJeGkfHCBCPtABo37wscQaDkhmw5nrL2Qb
jX+GNJensrYbPig+sNiCtR4WXK6XyAvRJddPYYwH+dQ50BGNAH3EzqCA2w5iARGs
drwM0Y6t/lVTLkeDvSnlydI+aK7cEGXq15Iq/WT4+vuNi3HfswwU/NDHbEBogxRV
E7ecWrMo3B4HXZ4WX+uz2XVDuBvbVp2lAtT0jxcCAwEAATANBgkqhkiG9w0BAQQF
AAOCAgEAoA/05KCvCNaApLBRnd3IPNQHWNaf0T6WPizioqkQ54wMWca+WFLcIe2h
OpoMRZ01bk268qlWSpLTpEKqfOYaVDFa1wqOggATElrGaHkJ8/Th5Z8o3Ha8ocSG
l0JW0eO4YA9Oy5NDM0Kd/Wep4doi7GP3DcqK9NyIVlZhZdNb3aHp/8VY7HcTrwzI
uV7BqzI0yNEiPCS+esZcSKXan4w1CA5hzwRD9Cykf9ORGDAXOT7en1ZpMNdjxx5c
TA8eBoS42bxlDm4jzKbYXZFfCoQUx3nUbxqArNI7eIv2beJcYa8dQSw4DtE+Xjm0
ODlmWXh3qar+ylujIMzCkcmDfIhs9ESSx//SBtgRk53rGsWe7o4ivH5jSVm3wqhG
YnGG+7Fjk9YIzFJcQQ5ANbmSkFyOSkpo+NzIM0ZN/V+brGRZVQsTV+HC25IM6JCr
vYMANG6ZNfSiTJVMh/LF0vrZn8Evd/ZIoKI/7UvoaAhAZ4lguRMS2bfpvwukZLH1
ttTKNI47s4VZvSHlYptlhPVxb+JLkkb1ckZIxl+FRpxo7WGhdyOZn6jXShHnDDs0
L+5jcl8zwvMXCFOvLaF1WtrsIjEkwmHolh8RVk5vV3h9EYMjWEhZQKzUhunEqtm6
s492Jib6+B83WeEwGRXX29pmH3sGJn8XtPAgPA36vqSpfdcz70g=
-----END CERTIFICATE-----
