Certificate:
    Data:
        Version: 1 (0x0)
        Serial Number: 1048578 (0x100002)
    Signature Algorithm: md5WithRSAEncryption
        Issuer: O=University of Toronto, OU=ECE568/emailAddress=ece568ca@ecf.utoronto.ca, L=Toronto, ST=Ontario, C=CA, CN=ECE568 Certificate Authority
        Validity
            Not Before: Feb 27 05:56:45 2015 GMT
            Not After : Feb 27 05:56:45 2016 GMT
        Subject: C=CA, ST=Ontario, O=University of Toronto, OU=ECE658, CN=Bob's Server
        Subject Public Key Info:
            Public Key Algorithm: rsaEncryption
                Public-Key: (4096 bit)
                Modulus:
                    00:a1:61:51:db:91:a8:3f:5d:21:60:98:a8:ba:0c:
                    fb:5b:b2:e2:0d:c2:97:0d:eb:27:60:fd:19:23:33:
                    3c:e6:a3:1b:80:6f:f5:a8:0d:d1:3a:a4:8f:0c:42:
                    7e:ac:75:24:91:9a:4a:a9:3a:b3:a4:77:59:bd:a2:
                    ec:3e:d2:0b:fd:06:0d:5f:19:1e:a6:a6:67:c8:0d:
                    f6:21:dc:27:93:2a:88:4b:e0:33:8e:cc:8b:89:02:
                    5e:7b:ee:a2:4d:34:f4:e5:a8:e7:e4:e3:60:50:ef:
                    7c:ad:94:85:80:b7:03:c8:af:3c:f5:bb:e0:51:23:
                    b5:c8:36:31:c4:7a:cb:dc:50:c7:4c:5f:af:21:a7:
                    1e:65:a6:7d:53:b1:e5:0c:c3:32:bf:d5:39:22:dc:
                    71:b1:a8:5c:41:d8:f8:36:3f:01:59:e7:a7:c6:0a:
                    eb:0a:b3:de:4c:35:fb:03:55:41:a8:06:b4:ed:b4:
                    5a:84:7c:62:cd:b2:d1:91:50:b3:b4:ef:63:e3:9e:
                    db:e1:31:19:dd:84:7c:d0:9a:2b:ba:00:85:14:45:
                    97:73:77:3c:92:52:d0:c3:5f:f1:bd:94:75:b1:1e:
                    c1:7a:c4:73:b2:4e:05:69:e4:c9:9b:1a:3a:17:33:
                    d4:a1:e7:b2:34:4a:a8:0b:4e:ca:3f:3f:67:9c:fb:
                    09:93:35:3e:bb:8f:ce:cb:73:f4:ed:c3:48:83:f4:
                    98:4f:d7:4e:6c:d4:b1:59:1c:91:b7:07:7d:c3:2d:
                    a7:2c:56:f2:91:3e:d9:00:9c:ef:f4:53:da:9f:79:
                    aa:51:ca:6d:bb:2c:de:9c:1a:28:1f:65:ef:bc:36:
                    38:96:9a:be:41:71:3d:c1:74:36:cd:78:52:2e:20:
                    e2:cb:98:e4:db:ae:3e:2e:27:f1:80:bc:b4:7d:d4:
                    52:26:54:78:ba:e7:ce:c3:3d:dc:31:0d:fb:ba:de:
                    f5:2e:ae:59:01:7e:e1:85:b6:c3:24:d7:4e:26:66:
                    2f:73:2d:63:4d:97:fb:80:a7:9f:7c:f7:1c:39:ae:
                    eb:83:15:64:10:59:7b:a8:08:47:1d:10:f0:1c:a4:
                    6d:c5:56:47:d6:ba:07:5d:1d:86:2b:28:be:27:e0:
                    9b:ce:c4:a2:ed:8d:65:26:5e:c3:82:9d:74:ea:a6:
                    60:25:64:85:19:b6:ca:79:2b:e0:ec:c3:41:52:19:
                    fd:2e:3f:8e:98:e9:cc:74:10:ef:c7:66:db:87:35:
                    c4:ac:80:ab:bc:29:fd:24:41:0d:15:9a:1f:88:8f:
                    f2:e0:8a:02:4a:6b:e9:a1:c7:71:49:9e:7b:e2:0e:
                    67:0b:4d:ac:ac:02:66:f3:24:76:cd:84:43:6b:fb:
                    de:6a:91
                Exponent: 65537 (0x10001)
    Signature Algorithm: md5WithRSAEncryption
         ab:65:f7:55:ad:f7:8e:fd:f0:e5:72:3d:ff:05:c3:11:9b:b7:
         76:8a:8f:db:55:f4:9b:62:e7:14:76:92:e0:d1:b7:0c:0b:d0:
         30:5e:2d:b4:2f:28:0e:f1:a2:34:25:21:52:c9:3d:c0:21:80:
         c7:29:d8:46:c8:5c:33:e5:74:76:80:ba:1c:57:da:d8:70:a4:
         71:e4:34:5e:d8:59:cb:9b:1c:d5:13:57:0b:fc:1e:89:09:6b:
         4b:a9:ec:03:22:39:c8:7d:8d:50:53:b5:c7:c4:8a:73:a9:a9:
         71:ac:5f:79:77:fe:4a:24:e5:cc:89:24:ac:5d:2f:1e:9c:4b:
         f4:14:64:d2:b3:f1:89:e0:54:1c:68:8d:7f:4b:94:72:d6:83:
         99:4d:c9:5f:51:e1:61:52:e1:94:60:91:93:7b:dc:18:4a:92:
         88:b0:ab:27:04:bc:3e:33:e8:89:f0:aa:49:92:71:ff:79:a6:
         e2:bf:b8:cb:ed:32:67:e9:61:4a:a2:af:a1:d1:01:0b:44:33:
         1f:4e:b6:bf:0b:1a:d9:e9:03:70:c9:c2:56:f5:31:29:fb:f0:
         9e:b7:7a:b7:b6:25:6b:26:9e:a5:ef:2b:6a:2d:45:9f:2b:33:
         b0:06:de:3b:19:89:a5:6c:39:bb:36:49:19:e5:80:1a:7f:d7:
         b0:c4:fb:b2:d9:3e:8a:73:4e:ea:c0:6e:25:b8:6c:a8:00:7d:
         53:89:d0:58:43:9c:93:27:74:ab:11:cc:e8:4c:88:22:66:75:
         a4:c2:18:76:f1:b1:9d:b0:0d:ec:14:03:77:83:48:10:ac:cf:
         db:2d:be:d1:e7:de:f4:5b:4d:b0:3e:63:9d:a1:82:75:aa:2b:
         7f:5d:8b:ec:b1:53:75:a9:84:87:f3:06:0d:b3:96:ca:08:29:
         cb:a2:7e:c8:5b:05:36:5a:89:7b:ef:73:ce:96:27:fa:49:d6:
         7c:2c:57:9a:33:ea:8c:64:f5:63:da:53:18:4d:0b:4f:c3:25:
         0d:ce:c9:ad:fe:4c:77:a8:76:5f:be:16:68:ae:a2:aa:36:1e:
         09:52:72:bc:f4:48:56:a2:d2:49:c4:83:50:83:2a:04:15:41:
         a8:fa:c3:ea:16:1f:e9:51:53:c0:ca:3f:a8:01:65:e4:8d:52:
         a4:b4:23:97:94:a5:02:9d:e5:e2:5f:d7:de:9f:98:3d:43:78:
         a0:ff:ee:b3:84:d0:5f:d9:1e:71:3e:bb:41:ea:39:86:4f:65:
         e3:03:8c:8b:49:5f:96:1f:64:a6:ea:62:46:99:c9:d7:4d:a5:
         1f:c6:c8:97:c6:24:50:f3:d5:fa:c2:d4:3c:01:25:10:52:33:
         8c:b6:94:05:dd:24:a5:d1
-----BEGIN CERTIFICATE-----
MIIFkDCCA3gCAxAAAjANBgkqhkiG9w0BAQQFADCBsjEeMBwGA1UEChMVVW5pdmVy
c2l0eSBvZiBUb3JvbnRvMQ8wDQYDVQQLEwZFQ0U1NjgxJzAlBgkqhkiG9w0BCQEW
GGVjZTU2OGNhQGVjZi51dG9yb250by5jYTEQMA4GA1UEBxMHVG9yb250bzEQMA4G
A1UECBMHT250YXJpbzELMAkGA1UEBhMCQ0ExJTAjBgNVBAMTHEVDRTU2OCBDZXJ0
aWZpY2F0ZSBBdXRob3JpdHkwHhcNMTUwMjI3MDU1NjQ1WhcNMTYwMjI3MDU1NjQ1
WjBnMQswCQYDVQQGEwJDQTEQMA4GA1UECBMHT250YXJpbzEeMBwGA1UEChMVVW5p
dmVyc2l0eSBvZiBUb3JvbnRvMQ8wDQYDVQQLEwZFQ0U2NTgxFTATBgNVBAMTDEJv
YidzIFNlcnZlcjCCAiIwDQYJKoZIhvcNAQEBBQADggIPADCCAgoCggIBAKFhUduR
qD9dIWCYqLoM+1uy4g3Clw3rJ2D9GSMzPOajG4Bv9agN0TqkjwxCfqx1JJGaSqk6
s6R3Wb2i7D7SC/0GDV8ZHqamZ8gN9iHcJ5MqiEvgM47Mi4kCXnvuok009OWo5+Tj
YFDvfK2UhYC3A8ivPPW74FEjtcg2McR6y9xQx0xfryGnHmWmfVOx5QzDMr/VOSLc
cbGoXEHY+DY/AVnnp8YK6wqz3kw1+wNVQagGtO20WoR8Ys2y0ZFQs7TvY+Oe2+Ex
Gd2EfNCaK7oAhRRFl3N3PJJS0MNf8b2UdbEewXrEc7JOBWnkyZsaOhcz1KHnsjRK
qAtOyj8/Z5z7CZM1PruPzstz9O3DSIP0mE/XTmzUsVkckbcHfcMtpyxW8pE+2QCc
7/RT2p95qlHKbbss3pwaKB9l77w2OJaavkFxPcF0Ns14Ui4g4suY5NuuPi4n8YC8
tH3UUiZUeLrnzsM93DEN+7re9S6uWQF+4YW2wyTXTiZmL3MtY02X+4Cnn3z3HDmu
64MVZBBZe6gIRx0Q8BykbcVWR9a6B10dhisovifgm87Eou2NZSZew4KddOqmYCVk
hRm2ynkr4OzDQVIZ/S4/jpjpzHQQ78dm24c1xKyAq7wp/SRBDRWaH4iP8uCKAkpr
6aHHcUmee+IOZwtNrKwCZvMkds2EQ2v73mqRAgMBAAEwDQYJKoZIhvcNAQEEBQAD
ggIBAKtl91Wt94798OVyPf8FwxGbt3aKj9tV9Jti5xR2kuDRtwwL0DBeLbQvKA7x
ojQlIVLJPcAhgMcp2EbIXDPldHaAuhxX2thwpHHkNF7YWcubHNUTVwv8HokJa0up
7AMiOch9jVBTtcfEinOpqXGsX3l3/kok5cyJJKxdLx6cS/QUZNKz8YngVBxojX9L
lHLWg5lNyV9R4WFS4ZRgkZN73BhKkoiwqycEvD4z6InwqkmScf95puK/uMvtMmfp
YUqir6HRAQtEMx9Otr8LGtnpA3DJwlb1MSn78J63ere2JWsmnqXvK2otRZ8rM7AG
3jsZiaVsObs2SRnlgBp/17DE+7LZPopzTurAbiW4bKgAfVOJ0FhDnJMndKsRzOhM
iCJmdaTCGHbxsZ2wDewUA3eDSBCsz9stvtHn3vRbTbA+Y52hgnWqK39di+yxU3Wp
hIfzBg2zlsoIKcuifshbBTZaiXvvc86WJ/pJ1nwsV5oz6oxk9WPaUxhNC0/DJQ3O
ya3+THeodl++Fmiuoqo2HglScrz0SFai0knEg1CDKgQVQaj6w+oWH+lRU8DKP6gB
ZeSNUqS0I5eUpQKd5eJf196fmD1DeKD/7rOE0F/ZHnE+u0HqOYZPZeMDjItJX5Yf
ZKbqYkaZyddNpR/GyJfGJFDz1frC1DwBJRBSM4y2lAXdJKXR
-----END CERTIFICATE-----
